; Function Attrs: mustprogress uwtable
define internal void @_ZN32pxrInternal_v0_24__pxrReserved__12_GLOBAL__N_130_ScalingTypedSampledDataSourceIfE8GetValueEf(ptr dead_on_unwind noalias nocapture writable writeonly sret(%"class.pxrInternal_v0_24__pxrReserved__::VtValue") align 8 %0, ptr noundef nonnull align 8 dereferenceable(28) %1, float noundef %2) unnamed_addr #0 align 2 personality ptr @__gxx_personality_v0 {
  %4 = load ptr, ptr %1, align 8
  %5 = getelementptr inbounds i8, ptr %4, i64 32
  %6 = load ptr, ptr %5, align 8
  %7 = tail call noundef float %6(ptr noundef nonnull align 8 dereferenceable(28) %1, float noundef %2)
  %8 = getelementptr inbounds nuw i8, ptr %0, i64 8
  %9 = or disjoint i64 3, ptrtoint (ptr @_ZZN32pxrInternal_v0_24__pxrReserved__7VtValue11GetTypeInfoIfEENS_16TfPointerAndBitsIKNS0_9_TypeInfoEEEvE2ti to i64)
  %10 = inttoptr i64 %9 to ptr
  store ptr %10, ptr %8, align 8
  store float %7, ptr %0, align 8
  ret void
}